target datalayout = "e-m:e-p270:32:32-p271:32:32-p272:64:64-i64:64-i128:128-f80:128-n8:16:32:64-S128"
target triple = "x86_64-pc-linux-gnu"

%struct._zend_executor_globals = type { %struct._zval_struct, %struct._zval_struct, [32 x ptr], ptr, ptr, %struct._zend_array, %struct._zend_array, ptr, i32, i32, ptr, ptr, ptr, ptr, ptr, ptr, i64, ptr, ptr, i32, i32, i64, i32, i32, i32, i8, i8, %struct.zend_atomic_bool_s, %struct.zend_atomic_bool_s, ptr, i64, ptr, ptr, %struct._zend_array, %struct._zend_array, i32, i8, %struct._zval_struct, %struct._zval_struct, %struct._zend_stack, %struct._zend_stack, %struct._zend_stack, ptr, i32, i32, i64, ptr, ptr, ptr, %struct._zend_objects_store, ptr, ptr, ptr, [3 x %struct._zend_op], ptr, i8, i8, i64, i32, i32, ptr, [16 x %struct._HashTableIterator], ptr, %union._zend_function, %struct._zend_op, %struct._zend_array, i64, %struct.zend_get_gc_buffer, ptr, ptr, ptr, i64, i8, i32, ptr, ptr, i64, %struct._zend_call_stack, i64, i64, [6 x ptr] }
%struct.zend_atomic_bool_s = type { i8 }
%struct._zval_struct = type { %union._zend_value, %union.anon, %union.anon.2 }
%union._zend_value = type { i64 }
%union.anon = type { i32 }
%union.anon.2 = type { i32 }
%struct._zend_stack = type { i32, i32, i32, ptr }
%struct._zend_objects_store = type { ptr, i32, i32, i32 }
%struct._HashTableIterator = type { ptr, i32, i32 }
%union._zend_function = type { %struct._zend_op_array }
%struct._zend_op_array = type { i8, [3 x i8], i32, ptr, ptr, ptr, i32, i32, ptr, ptr, ptr, ptr, i32, i32, i32, i32, ptr, ptr, ptr, ptr, ptr, i32, i32, ptr, ptr, ptr, i32, i32, i32, i32, ptr, ptr, [6 x ptr] }
%struct._zend_op = type { ptr, %union._znode_op, %union._znode_op, %union._znode_op, i32, i32, i8, i8, i8, i8 }
%union._znode_op = type { i32 }
%struct._zend_array = type { %struct._zend_refcounted_h, %union.anon.4, i32, %union.anon.6, i32, i32, i32, i32, i64, ptr }
%struct._zend_refcounted_h = type { i32, %union.anon.3 }
%union.anon.3 = type { i32 }
%union.anon.4 = type { i32 }
%union.anon.6 = type { ptr }
%struct.zend_get_gc_buffer = type { ptr, ptr, ptr }
%struct._zend_call_stack = type { ptr, i64 }
%struct._php_random_algo = type { i64, ptr, ptr, ptr, ptr }
%struct._php_random_algo_with_state = type { ptr, ptr }
%struct._php_random_result = type { i64, i64 }

@executor_globals = external global %struct._zend_executor_globals, align 8
@random_ce_Random_BrokenRandomEngineError = global ptr null, align 8
@.str = private unnamed_addr constant [62 x i8] c"Failed to generate an acceptable random number in %d attempts\00", align 1

; Function Attrs: nounwind uwtable
define i64 @php_random_range64(ptr %0, ptr %1, i64 noundef %2) #0 {
  %4 = alloca i64, align 8
  %5 = alloca %struct._php_random_algo_with_state, align 8
  %6 = alloca i64, align 8
  %7 = alloca ptr, align 8
  %8 = alloca ptr, align 8
  %9 = alloca i64, align 8
  %10 = alloca i64, align 8
  %11 = alloca i64, align 8
  %12 = alloca i32, align 4
  %13 = alloca %struct._php_random_result, align 8
  %14 = alloca %struct._php_random_result, align 8
  %15 = getelementptr inbounds { ptr, ptr }, ptr %5, i32 0, i32 0
  store ptr %0, ptr %15, align 8
  %16 = getelementptr inbounds { ptr, ptr }, ptr %5, i32 0, i32 1
  store ptr %1, ptr %16, align 8
  store i64 %2, ptr %6, align 8
  %17 = getelementptr inbounds %struct._php_random_algo_with_state, ptr %5, i32 0, i32 0
  %18 = load ptr, ptr %17, align 8
  store ptr %18, ptr %7, align 8
  %19 = getelementptr inbounds %struct._php_random_algo_with_state, ptr %5, i32 0, i32 1
  %20 = load ptr, ptr %19, align 8
  store ptr %20, ptr %8, align 8
  store i64 0, ptr %11, align 8
  store i32 0, ptr %12, align 4
  store i64 0, ptr %9, align 8
  store i64 0, ptr %11, align 8
  br label %21

21:                                               ; preds = %46, %3
  %22 = load ptr, ptr %7, align 8
  %23 = getelementptr inbounds %struct._php_random_algo, ptr %22, i32 0, i32 1
  %24 = load ptr, ptr %23, align 8
  %25 = load ptr, ptr %8, align 8
  %26 = call { i64, i64 } %24(ptr noundef %25)
  %27 = getelementptr inbounds { i64, i64 }, ptr %13, i32 0, i32 0
  %28 = extractvalue { i64, i64 } %26, 0
  store i64 %28, ptr %27, align 8
  %29 = getelementptr inbounds { i64, i64 }, ptr %13, i32 0, i32 1
  %30 = extractvalue { i64, i64 } %26, 1
  store i64 %30, ptr %29, align 8
  %31 = load i64, ptr %9, align 8
  %32 = getelementptr inbounds %struct._php_random_result, ptr %13, i32 0, i32 0
  %33 = load i64, ptr %32, align 8
  %34 = load i64, ptr %11, align 8
  %35 = mul i64 %34, 8
  %36 = shl i64 %33, %35
  %37 = or i64 %31, %36
  store i64 %37, ptr %9, align 8
  %38 = getelementptr inbounds %struct._php_random_result, ptr %13, i32 0, i32 1
  %39 = load i64, ptr %38, align 8
  %40 = load i64, ptr %11, align 8
  %41 = add i64 %40, %39
  store i64 %41, ptr %11, align 8
  %42 = load ptr, ptr getelementptr inbounds (%struct._zend_executor_globals, ptr @executor_globals, i32 0, i32 50), align 8
  %43 = icmp ne ptr %42, null
  br i1 %43, label %44, label %45

44:                                               ; preds = %21
  store i64 0, ptr %4, align 8
  br label %126

45:                                               ; preds = %21
  br label %46

46:                                               ; preds = %45
  %47 = load i64, ptr %11, align 8
  %48 = icmp ult i64 %47, 8
  br i1 %48, label %21, label %49

49:                                               ; preds = %46
  %50 = load i64, ptr %6, align 8
  %51 = icmp eq i64 %50, -1
  %52 = xor i1 %51, true
  %53 = xor i1 %52, true
  %54 = zext i1 %53 to i32
  %55 = sext i32 %54 to i64
  %56 = icmp ne i64 %55, 0
  br i1 %56, label %57, label %59

57:                                               ; preds = %49
  %58 = load i64, ptr %9, align 8
  store i64 %58, ptr %4, align 8
  br label %126

59:                                               ; preds = %49
  %60 = load i64, ptr %6, align 8
  %61 = add i64 %60, 1
  store i64 %61, ptr %6, align 8
  %62 = load i64, ptr %6, align 8
  %63 = load i64, ptr %6, align 8
  %64 = sub i64 %63, 1
  %65 = and i64 %62, %64
  %66 = icmp eq i64 %65, 0
  br i1 %66, label %67, label %72

67:                                               ; preds = %59
  %68 = load i64, ptr %9, align 8
  %69 = load i64, ptr %6, align 8
  %70 = sub i64 %69, 1
  %71 = and i64 %68, %70
  store i64 %71, ptr %4, align 8
  br label %126

72:                                               ; preds = %59
  %73 = load i64, ptr %6, align 8
  %74 = urem i64 -1, %73
  %75 = sub i64 -1, %74
  %76 = sub i64 %75, 1
  store i64 %76, ptr %10, align 8
  br label %77

77:                                               ; preds = %121, %72
  %78 = load i64, ptr %9, align 8
  %79 = load i64, ptr %10, align 8
  %80 = icmp ugt i64 %78, %79
  %81 = xor i1 %80, true
  %82 = xor i1 %81, true
  %83 = zext i1 %82 to i32
  %84 = sext i32 %83 to i64
  %85 = icmp ne i64 %84, 0
  br i1 %85, label %86, label %122

86:                                               ; preds = %77
  %87 = load i32, ptr %12, align 4
  %88 = add i32 %87, 1
  store i32 %88, ptr %12, align 4
  %89 = icmp ugt i32 %88, 50
  br i1 %89, label %90, label %92

90:                                               ; preds = %86
  %91 = load ptr, ptr @random_ce_Random_BrokenRandomEngineError, align 8
  call void (ptr, ptr, ...) @zend_throw_error(ptr noundef %91, ptr noundef @.str, i32 noundef 50)
  store i64 0, ptr %4, align 8
  br label %126

92:                                               ; preds = %86
  store i64 0, ptr %9, align 8
  store i64 0, ptr %11, align 8
  br label %93

93:                                               ; preds = %118, %92
  %94 = load ptr, ptr %7, align 8
  %95 = getelementptr inbounds %struct._php_random_algo, ptr %94, i32 0, i32 1
  %96 = load ptr, ptr %95, align 8
  %97 = load ptr, ptr %8, align 8
  %98 = call { i64, i64 } %96(ptr noundef %97)
  %99 = getelementptr inbounds { i64, i64 }, ptr %14, i32 0, i32 0
  %100 = extractvalue { i64, i64 } %98, 0
  store i64 %100, ptr %99, align 8
  %101 = getelementptr inbounds { i64, i64 }, ptr %14, i32 0, i32 1
  %102 = extractvalue { i64, i64 } %98, 1
  store i64 %102, ptr %101, align 8
  %103 = load i64, ptr %9, align 8
  %104 = getelementptr inbounds %struct._php_random_result, ptr %14, i32 0, i32 0
  %105 = load i64, ptr %104, align 8
  %106 = load i64, ptr %11, align 8
  %107 = mul i64 %106, 8
  %108 = shl i64 %105, %107
  %109 = or i64 %103, %108
  store i64 %109, ptr %9, align 8
  %110 = getelementptr inbounds %struct._php_random_result, ptr %14, i32 0, i32 1
  %111 = load i64, ptr %110, align 8
  %112 = load i64, ptr %11, align 8
  %113 = add i64 %112, %111
  store i64 %113, ptr %11, align 8
  %114 = load ptr, ptr getelementptr inbounds (%struct._zend_executor_globals, ptr @executor_globals, i32 0, i32 50), align 8
  %115 = icmp ne ptr %114, null
  br i1 %115, label %116, label %117

116:                                              ; preds = %93
  store i64 0, ptr %4, align 8
  br label %126

117:                                              ; preds = %93
  br label %118

118:                                              ; preds = %117
  %119 = load i64, ptr %11, align 8
  %120 = icmp ult i64 %119, 8
  br i1 %120, label %93, label %121

121:                                              ; preds = %118
  br label %77

122:                                              ; preds = %77
  %123 = load i64, ptr %9, align 8
  %124 = load i64, ptr %6, align 8
  %125 = urem i64 %123, %124
  store i64 %125, ptr %4, align 8
  br label %126

126:                                              ; preds = %122, %116, %90, %67, %57, %44
  %127 = load i64, ptr %4, align 8
  ret i64 %127
}