; Function Attrs: nounwind uwtable
define i64 @php_random_range64(ptr nocapture readonly %0, ptr %1, i64 noundef %2) local_unnamed_addr #0 {
  %4 = getelementptr inbounds i8, ptr %0, i64 8
  br label %5

5:                                                ; preds = %9, %3
  %.030 = phi i64 [ 0, %3 ], [ %15, %9 ]
  %.029 = phi i64 [ 0, %3 ], [ %13, %9 ]
  %6 = load ptr, ptr %4, align 8
  %7 = tail call { i64, i64 } %6(ptr noundef %1) #13
  %8 = load ptr, ptr getelementptr inbounds (%struct._zend_executor_globals, ptr @executor_globals, i64 0, i32 50), align 8
  %.not = icmp eq ptr %8, null
  br i1 %.not, label %9, label %.loopexit

9:                                                ; preds = %5
  %10 = extractvalue { i64, i64 } %7, 0
  %11 = shl nuw nsw i64 %.030, 3
  %12 = shl i64 %10, %11
  %13 = or i64 %12, %.029
  %14 = extractvalue { i64, i64 } %7, 1
  %15 = add i64 %14, %.030
  %16 = icmp ult i64 %15, 8
  br i1 %16, label %5, label %17

17:                                               ; preds = %9
  %18 = icmp eq i64 %2, -1
  br i1 %18, label %.loopexit, label %19

19:                                               ; preds = %17
  %20 = add nuw i64 %2, 1
  %21 = and i64 %20, %2
  %22 = icmp eq i64 %21, 0
  br i1 %22, label %23, label %25

23:                                               ; preds = %19
  %24 = and i64 %13, %2
  br label %.loopexit

25:                                               ; preds = %19
  %26 = urem i64 -1, %20
  %27 = sub nuw i64 -2, %26
  %28 = icmp ugt i64 %13, %27
  br i1 %28, label %.lr.ph, label %._crit_edge

.loopexit38:                                      ; preds = %36
  %29 = icmp ugt i64 %42, %27
  br i1 %29, label %.lr.ph, label %._crit_edge

.lr.ph:                                           ; preds = %25, %.loopexit38
  %.03246 = phi i32 [ %30, %.loopexit38 ], [ 0, %25 ]
  %30 = add nuw nsw i32 %.03246, 1
  %exitcond = icmp eq i32 %.03246, 50
  br i1 %exitcond, label %31, label %.preheader

31:                                               ; preds = %.lr.ph
  %32 = load ptr, ptr @random_ce_Random_BrokenRandomEngineError, align 8
  tail call void (ptr, ptr, ...) @zend_throw_error(ptr noundef %32, ptr noundef nonnull @.str, i32 noundef 50) #13
  br label %.loopexit

.preheader:                                       ; preds = %.lr.ph, %36
  %.131 = phi i64 [ %38, %36 ], [ 0, %.lr.ph ]
  %.2 = phi i64 [ %42, %36 ], [ 0, %.lr.ph ]
  %33 = load ptr, ptr %4, align 8
  %34 = tail call { i64, i64 } %33(ptr noundef %1) #13
  %35 = load ptr, ptr getelementptr inbounds (%struct._zend_executor_globals, ptr @executor_globals, i64 0, i32 50), align 8
  %.not37 = icmp eq ptr %35, null
  br i1 %.not37, label %36, label %.loopexit

36:                                               ; preds = %.preheader
  %37 = extractvalue { i64, i64 } %34, 1
  %38 = add i64 %37, %.131
  %39 = extractvalue { i64, i64 } %34, 0
  %40 = shl nuw nsw i64 %.131, 3
  %41 = shl i64 %39, %40
  %42 = or i64 %41, %.2
  %43 = icmp ult i64 %38, 8
  br i1 %43, label %.preheader, label %.loopexit38

._crit_edge:                                      ; preds = %.loopexit38, %25
  %.1.lcssa = phi i64 [ %13, %25 ], [ %42, %.loopexit38 ]
  %44 = urem i64 %.1.lcssa, %20
  br label %.loopexit

.loopexit:                                        ; preds = %5, %.preheader, %17, %._crit_edge, %31, %23
  %.0 = phi i64 [ %24, %23 ], [ 0, %31 ], [ %44, %._crit_edge ], [ %13, %17 ], [ 0, %.preheader ], [ 0, %5 ]
  ret i64 %.0
}